target datalayout = "e-m:e-p270:32:32-p271:32:32-p272:64:64-i64:64-i128:128-f80:128-n8:16:32:64-S128"
target triple = "x86_64-pc-linux-gnu"

%struct._zend_phpdbg_globals = type { [11 x %struct._zend_array], %struct._zend_array, %struct._zend_array, ptr, ptr, %struct.phpdbg_frame_t, i32, ptr, %struct.phpdbg_lexer_data, ptr, %struct.sigaction, i32, i64, %struct.phpdbg_btree, %struct.phpdbg_btree, %struct._zend_array, %struct._zend_array, %struct._zend_array, %struct._zend_array, ptr, ptr, i8, ptr, ptr, ptr, i64, ptr, %struct._zval_struct, i32, i32, i8, i8, ptr, ptr, ptr, %struct._zend_array, ptr, ptr, ptr, [3 x %struct.anon.10], ptr, %struct.anon.11, i64, [2 x ptr], [3 x ptr], ptr, i8, ptr, ptr, [500 x i8], i32, %struct.phpdbg_signal_safe_mem, ptr, i64, ptr, i64 }
%struct.phpdbg_frame_t = type { i32, ptr, ptr }
%struct.phpdbg_lexer_data = type { i32, ptr, ptr, ptr, ptr, i32 }
%struct.sigaction = type { %union.anon.4, %struct.__sigset_t, i32, ptr }
%union.anon.4 = type { ptr }
%struct.__sigset_t = type { [16 x i64] }
%struct.phpdbg_btree = type { i64, i64, i8, ptr }
%struct._zval_struct = type { %union._zend_value, %union.anon.6, %union.anon.9 }
%union._zend_value = type { i64 }
%union.anon.6 = type { i32 }
%union.anon.9 = type { i32 }
%struct._zend_array = type { %struct._zend_refcounted_h, %union.anon.1, i32, %union.anon.3, i32, i32, i32, i32, i64, ptr }
%struct._zend_refcounted_h = type { i32, %union.anon }
%union.anon = type { i32 }
%union.anon.1 = type { i32 }
%union.anon.3 = type { ptr }
%struct.anon.10 = type { i32 }
%struct.anon.11 = type { i8, i32, i32, ptr, i32 }
%struct.phpdbg_signal_safe_mem = type { ptr, i8, ptr, ptr }

@.str.10 = private unnamed_addr constant [3 x i8] c"%s\00", align 1
@phpdbg_globals = external global %struct._zend_phpdbg_globals, align 8

; Function Attrs: nounwind uwtable
define ptr @phpdbg_read_input(ptr noundef %0) #0 {
  %2 = alloca ptr, align 8
  %3 = alloca ptr, align 8
  %4 = alloca [500 x i8], align 16
  %5 = alloca ptr, align 8
  store ptr %0, ptr %2, align 8
  store ptr null, ptr %3, align 8
  %6 = load i64, ptr getelementptr inbounds (%struct._zend_phpdbg_globals, ptr @phpdbg_globals, i32 0, i32 53), align 8
  %7 = and i64 %6, 851968
  %8 = icmp ne i64 %7, 327680
  br i1 %8, label %9, label %24

9:                                                ; preds = %1
  %10 = load ptr, ptr %2, align 8
  %11 = icmp eq ptr %10, null
  br i1 %11, label %12, label %20

12:                                               ; preds = %9
  %13 = load i32, ptr getelementptr inbounds (%struct._zend_phpdbg_globals, ptr @phpdbg_globals, i32 0, i32 39, i64 1), align 4
  %14 = call ptr @phpdbg_get_prompt()
  %15 = call i32 (i32, i32, ptr, ...) @phpdbg_print(i32 noundef 4, i32 noundef %13, ptr noundef @.str.10, ptr noundef %14)
  %16 = getelementptr inbounds [500 x i8], ptr %4, i64 0, i64 0
  %17 = call i32 @phpdbg_consume_stdin_line(ptr noundef %16)
  %18 = getelementptr inbounds [500 x i8], ptr %4, i64 0, i64 0
  %19 = call noalias ptr @_estrdup(ptr noundef %18)
  store ptr %19, ptr %3, align 8
  br label %23

20:                                               ; preds = %9
  %21 = load ptr, ptr %2, align 8
  %22 = call noalias ptr @_estrdup(ptr noundef %21)
  store ptr %22, ptr %3, align 8
  br label %23

23:                                               ; preds = %20, %12
  br label %24

24:                                               ; preds = %23, %1
  %25 = load ptr, ptr %3, align 8
  %26 = icmp ne ptr %25, null
  br i1 %26, label %27, label %61

27:                                               ; preds = %24
  %28 = call ptr @__ctype_b_loc() #17
  %29 = load ptr, ptr %28, align 8
  %30 = load ptr, ptr %3, align 8
  %31 = load i8, ptr %30, align 1
  %32 = sext i8 %31 to i32
  %33 = sext i32 %32 to i64
  %34 = getelementptr inbounds i16, ptr %29, i64 %33
  %35 = load i16, ptr %34, align 2
  %36 = zext i16 %35 to i32
  %37 = and i32 %36, 8192
  %38 = icmp ne i32 %37, 0
  br i1 %38, label %39, label %61

39:                                               ; preds = %27
  %40 = load ptr, ptr %3, align 8
  store ptr %40, ptr %5, align 8
  br label %41

41:                                               ; preds = %53, %39
  %42 = call ptr @__ctype_b_loc() #17
  %43 = load ptr, ptr %42, align 8
  %44 = load ptr, ptr %5, align 8
  %45 = load i8, ptr %44, align 1
  %46 = sext i8 %45 to i32
  %47 = sext i32 %46 to i64
  %48 = getelementptr inbounds i16, ptr %43, i64 %47
  %49 = load i16, ptr %48, align 2
  %50 = zext i16 %49 to i32
  %51 = and i32 %50, 8192
  %52 = icmp ne i32 %51, 0
  br i1 %52, label %53, label %56

53:                                               ; preds = %41
  %54 = load ptr, ptr %5, align 8
  %55 = getelementptr inbounds i8, ptr %54, i32 1
  store ptr %55, ptr %5, align 8
  br label %41

56:                                               ; preds = %41
  %57 = load ptr, ptr %5, align 8
  %58 = call noalias ptr @_estrdup(ptr noundef %57)
  store ptr %58, ptr %5, align 8
  %59 = load ptr, ptr %3, align 8
  call void @_efree(ptr noundef %59)
  %60 = load ptr, ptr %5, align 8
  store ptr %60, ptr %3, align 8
  br label %61

61:                                               ; preds = %56, %27, %24
  %62 = load ptr, ptr %3, align 8
  %63 = icmp ne ptr %62, null
  br i1 %63, label %64, label %76

64:                                               ; preds = %61
  %65 = load ptr, ptr %3, align 8
  %66 = call i64 @strlen(ptr noundef %65) #13
  %67 = icmp ne i64 %66, 0
  br i1 %67, label %68, label %76

68:                                               ; preds = %64
  %69 = load ptr, ptr getelementptr inbounds (%struct._zend_phpdbg_globals, ptr @phpdbg_globals, i32 0, i32 45), align 8
  %70 = icmp ne ptr %69, null
  br i1 %70, label %71, label %73

71:                                               ; preds = %68
  %72 = load ptr, ptr getelementptr inbounds (%struct._zend_phpdbg_globals, ptr @phpdbg_globals, i32 0, i32 45), align 8
  call void @free(ptr noundef %72) #12
  br label %73

73:                                               ; preds = %71, %68
  %74 = load ptr, ptr %3, align 8
  %75 = call noalias ptr @strdup(ptr noundef %74) #12
  store ptr %75, ptr getelementptr inbounds (%struct._zend_phpdbg_globals, ptr @phpdbg_globals, i32 0, i32 45), align 8
  br label %88

76:                                               ; preds = %64, %61
  %77 = load ptr, ptr getelementptr inbounds (%struct._zend_phpdbg_globals, ptr @phpdbg_globals, i32 0, i32 45), align 8
  %78 = icmp ne ptr %77, null
  br i1 %78, label %79, label %87

79:                                               ; preds = %76
  %80 = load ptr, ptr %3, align 8
  %81 = icmp ne ptr %80, null
  br i1 %81, label %82, label %84

82:                                               ; preds = %79
  %83 = load ptr, ptr %3, align 8
  call void @_efree(ptr noundef %83)
  br label %84

84:                                               ; preds = %82, %79
  %85 = load ptr, ptr getelementptr inbounds (%struct._zend_phpdbg_globals, ptr @phpdbg_globals, i32 0, i32 45), align 8
  %86 = call noalias ptr @_estrdup(ptr noundef %85)
  store ptr %86, ptr %3, align 8
  br label %87

87:                                               ; preds = %84, %76
  br label %88

88:                                               ; preds = %87, %73
  %89 = load ptr, ptr %3, align 8
  ret ptr %89
}