; Function Attrs: nounwind uwtable
define ptr @phpdbg_read_input(ptr noundef %0) local_unnamed_addr #1 {
  %2 = alloca [500 x i8], align 16
  %3 = load i64, ptr getelementptr inbounds (%struct._zend_phpdbg_globals, ptr @phpdbg_globals, i64 0, i32 53), align 8
  %4 = and i64 %3, 851968
  %.not = icmp eq i64 %4, 327680
  br i1 %.not, label %.thread38, label %5

5:                                                ; preds = %1
  %6 = icmp eq ptr %0, null
  br i1 %6, label %7, label %13

7:                                                ; preds = %5
  %8 = load i32, ptr getelementptr inbounds (%struct._zend_phpdbg_globals, ptr @phpdbg_globals, i64 0, i32 39, i64 1), align 4
  %9 = tail call ptr @phpdbg_get_prompt() #22
  %10 = tail call i32 (i32, i32, ptr, ...) @phpdbg_print(i32 noundef 4, i32 noundef %8, ptr noundef nonnull @.str.10, ptr noundef %9) #22
  %11 = call i32 @phpdbg_consume_stdin_line(ptr noundef nonnull %2) #22
  %12 = call noalias ptr @_estrdup(ptr noundef nonnull %2) #22
  br label %15

13:                                               ; preds = %5
  %14 = tail call noalias ptr @_estrdup(ptr noundef nonnull %0) #22
  br label %15

15:                                               ; preds = %7, %13
  %.016 = phi ptr [ %12, %7 ], [ %14, %13 ]
  %.not19 = icmp eq ptr %.016, null
  br i1 %.not19, label %.thread38, label %16

16:                                               ; preds = %15
  %17 = tail call ptr @__ctype_b_loc() #28
  %18 = load ptr, ptr %17, align 8
  %19 = load i8, ptr %.016, align 1
  %20 = sext i8 %19 to i64
  %21 = getelementptr inbounds i16, ptr %18, i64 %20
  %22 = load i16, ptr %21, align 2
  %23 = and i16 %22, 8192
  %.not20 = icmp eq i16 %23, 0
  br i1 %.not20, label %.thread33, label %.preheader

.preheader:                                       ; preds = %16, %.preheader
  %.0 = phi ptr [ %29, %.preheader ], [ %.016, %16 ]
  %24 = load i8, ptr %.0, align 1
  %25 = sext i8 %24 to i64
  %26 = getelementptr inbounds i16, ptr %18, i64 %25
  %27 = load i16, ptr %26, align 2
  %28 = and i16 %27, 8192
  %.not21 = icmp eq i16 %28, 0
  %29 = getelementptr inbounds i8, ptr %.0, i64 1
  br i1 %.not21, label %30, label %.preheader

30:                                               ; preds = %.preheader
  %31 = call noalias ptr @_estrdup(ptr noundef nonnull %.0) #22
  call void @_efree(ptr noundef nonnull %.016) #22
  %.not22 = icmp eq ptr %31, null
  br i1 %.not22, label %37, label %..thread33_crit_edge

..thread33_crit_edge:                             ; preds = %30
  %char0.pre = load i8, ptr %31, align 1
  br label %.thread33

.thread33:                                        ; preds = %..thread33_crit_edge, %16
  %char0 = phi i8 [ %char0.pre, %..thread33_crit_edge ], [ %19, %16 ]
  %.136 = phi ptr [ %31, %..thread33_crit_edge ], [ %.016, %16 ]
  %.not23 = icmp eq i8 %char0, 0
  %32 = load ptr, ptr getelementptr inbounds (%struct._zend_phpdbg_globals, ptr @phpdbg_globals, i64 0, i32 45), align 8
  %.not2450 = icmp eq ptr %32, null
  br i1 %.not23, label %.thread, label %33

33:                                               ; preds = %.thread33
  br i1 %.not2450, label %35, label %34

34:                                               ; preds = %33
  call void @free(ptr noundef nonnull %32) #22
  br label %35

35:                                               ; preds = %34, %33
  %36 = call noalias ptr @strdup(ptr noundef nonnull %.136) #22
  store ptr %36, ptr getelementptr inbounds (%struct._zend_phpdbg_globals, ptr @phpdbg_globals, i64 0, i32 45), align 8
  br label %43

37:                                               ; preds = %30
  %38 = load ptr, ptr getelementptr inbounds (%struct._zend_phpdbg_globals, ptr @phpdbg_globals, i64 0, i32 45), align 8
  %.not24 = icmp eq ptr %38, null
  br i1 %.not24, label %43, label %.thread44

.thread:                                          ; preds = %.thread33
  br i1 %.not2450, label %43, label %40

.thread38:                                        ; preds = %1, %15
  %39 = load ptr, ptr getelementptr inbounds (%struct._zend_phpdbg_globals, ptr @phpdbg_globals, i64 0, i32 45), align 8
  %.not2441 = icmp eq ptr %39, null
  br i1 %.not2441, label %43, label %.thread44

40:                                               ; preds = %.thread
  call void @_efree(ptr noundef nonnull %.136) #22
  %.pre = load ptr, ptr getelementptr inbounds (%struct._zend_phpdbg_globals, ptr @phpdbg_globals, i64 0, i32 45), align 8
  br label %.thread44

.thread44:                                        ; preds = %37, %.thread38, %40
  %41 = phi ptr [ %39, %.thread38 ], [ %.pre, %40 ], [ %38, %37 ]
  %42 = call noalias ptr @_estrdup(ptr noundef %41) #22
  br label %43

43:                                               ; preds = %.thread, %.thread38, %37, %.thread44, %35
  %.2 = phi ptr [ %.136, %35 ], [ %42, %.thread44 ], [ null, %37 ], [ null, %.thread38 ], [ %.136, %.thread ]
  ret ptr %.2
}